Certificate:
    Data:
        Version: 3 (0x2)
        Serial Number: 1 (0x1)
    Signature Algorithm: sha1WithRSAEncryption
        Issuer: C=CN, ST=Beijing, O=Beijing Geek-geek Technology Co., Ltd., CN=Beijing Geek-geek Technology Co., Ltd./emailAddress=service@hiwifi.tw
        Validity
            Not Before: Jun 19 10:24:49 2014 GMT
            Not After : Jun 16 10:24:49 2024 GMT
        Subject: C=CN, ST=Beijing, O=Beijing Geek-geek Technology Co., Ltd., CN=HiWiFi/emailAddress=service@hiwifi.tw
        Subject Public Key Info:
            Public Key Algorithm: rsaEncryption
                Public-Key: (2048 bit)
                Modulus:
                    00:da:9d:89:58:79:2b:df:74:ea:a7:38:94:7e:96:
                    b2:98:08:4b:10:10:bf:c1:75:09:37:a7:97:7d:91:
                    db:f5:34:d9:5a:af:26:15:eb:cc:eb:41:c3:9a:05:
                    07:bf:5b:07:df:70:df:18:89:89:86:f4:67:31:e0:
                    e8:66:b6:7e:8d:40:0b:1d:18:69:44:69:3a:53:2b:
                    11:c2:8f:e2:e2:04:f9:45:3c:9e:c5:be:56:0e:3a:
                    c6:85:fa:52:15:88:e5:09:82:73:6c:63:ed:52:24:
                    d6:52:06:d5:0e:82:80:b7:47:6d:72:35:d2:2e:94:
                    dd:11:2e:99:94:79:e2:6f:64:98:36:51:15:3e:91:
                    e4:7c:aa:7f:e0:2b:31:40:b4:87:1e:4a:34:eb:ff:
                    69:dd:62:e2:84:2a:b8:f4:75:45:b0:e0:3a:5b:f1:
                    4e:86:d7:05:54:96:56:47:7e:ac:69:91:01:85:73:
                    d3:c2:1a:9d:42:82:7d:2b:aa:1e:b2:66:62:34:11:
                    e9:d3:f4:00:97:df:6d:fa:18:04:a5:95:4c:3f:75:
                    35:1b:e9:4b:9f:31:a0:19:26:e5:01:a3:b9:2b:12:
                    ec:2f:63:c7:1f:5f:4e:52:23:6c:9c:74:52:c1:ee:
                    d3:61:46:77:1c:a9:32:e0:80:7c:40:b3:eb:13:65:
                    88:e3
                Exponent: 65537 (0x10001)
        X509v3 extensions:
            X509v3 Basic Constraints: 
                CA:FALSE
            Netscape Comment: 
                HiWiFi Generated Certificate
            X509v3 Subject Key Identifier: 
                B9:FE:00:D1:0D:12:87:51:4B:3D:23:3E:C1:45:22:A1:69:57:85:1B
            X509v3 Authority Key Identifier: 
                keyid:5D:F2:9B:F9:3E:62:CF:4F:7C:63:3A:B1:D4:BD:01:89:F1:5F:1C:22

    Signature Algorithm: sha1WithRSAEncryption
         05:71:bd:c8:65:f7:d8:b5:1e:94:7e:24:32:8e:0d:a6:e2:ec:
         f9:b9:da:5f:d4:6e:da:ab:25:ab:c4:fc:51:e3:49:4a:8a:04:
         b2:d6:58:75:6a:d9:7a:01:2c:56:f1:1b:22:d5:ba:fe:39:7b:
         a0:f1:bc:a7:1b:e4:7a:7e:7d:54:fc:a5:a7:49:4f:5b:49:01:
         ad:6a:e5:a1:29:98:7c:18:07:cd:1f:09:29:45:35:bd:2a:e2:
         bb:db:06:10:9c:8f:23:7d:72:90:1b:f6:39:5b:8c:e6:42:79:
         f6:00:71:b7:85:7e:a7:e8:5f:1e:15:ef:57:1f:7b:ad:2d:ca:
         21:29:11:37:1c:65:a1:69:22:aa:a2:3c:64:c4:b6:b5:23:16:
         72:b1:d1:8b:53:f3:d0:7e:16:76:44:bf:88:69:36:42:1d:81:
         f7:05:75:3e:39:72:4b:67:3b:12:55:e1:0d:1f:77:e4:3a:07:
         65:55:0d:19:a1:a9:0c:a8:af:50:29:6c:14:f9:ee:89:a1:ea:
         d6:ff:b0:b3:40:eb:01:3d:7c:f9:9e:1e:9c:2d:0c:57:58:48:
         91:4c:b0:a4:1e:05:c3:d4:6b:64:b6:a8:fe:b9:bb:a0:4f:4c:
         44:9f:a3:f4:dd:bf:d8:0d:ec:33:41:c4:30:b6:27:35:a7:96:
         ce:cf:57:11
-----BEGIN CERTIFICATE-----
MIIEHTCCAwWgAwIBAgIBATANBgkqhkiG9w0BAQUFADCBozELMAkGA1UEBhMCQ04x
EDAOBgNVBAgMB0JlaWppbmcxLzAtBgNVBAoMJkJlaWppbmcgR2Vlay1nZWVrIFRl
Y2hub2xvZ3kgQ28uLCBMdGQuMS8wLQYDVQQDDCZCZWlqaW5nIEdlZWstZ2VlayBU
ZWNobm9sb2d5IENvLiwgTHRkLjEgMB4GCSqGSIb3DQEJARYRc2VydmljZUBoaXdp
ZmkudHcwHhcNMTQwNjE5MTAyNDQ5WhcNMjQwNjE2MTAyNDQ5WjCBgzELMAkGA1UE
BhMCQ04xEDAOBgNVBAgMB0JlaWppbmcxLzAtBgNVBAoMJkJlaWppbmcgR2Vlay1n
ZWVrIFRlY2hub2xvZ3kgQ28uLCBMdGQuMQ8wDQYDVQQDDAZIaVdpRmkxIDAeBgkq
hkiG9w0BCQEWEXNlcnZpY2VAaGl3aWZpLnR3MIIBIjANBgkqhkiG9w0BAQEFAAOC
AQ8AMIIBCgKCAQEA2p2JWHkr33TqpziUfpaymAhLEBC/wXUJN6eXfZHb9TTZWq8m
FevM60HDmgUHv1sH33DfGImJhvRnMeDoZrZ+jUALHRhpRGk6UysRwo/i4gT5RTye
xb5WDjrGhfpSFYjlCYJzbGPtUiTWUgbVDoKAt0dtcjXSLpTdES6ZlHnib2SYNlEV
PpHkfKp/4CsxQLSHHko06/9p3WLihCq49HVFsOA6W/FOhtcFVJZWR36saZEBhXPT
whqdQoJ9K6oesmZiNBHp0/QAl99t+hgEpZVMP3U1G+lLnzGgGSblAaO5KxLsL2PH
H19OUiNsnHRSwe7TYUZ3HKky4IB8QLPrE2WI4wIDAQABo3oweDAJBgNVHRMEAjAA
MCsGCWCGSAGG+EIBDQQeFhxIaVdpRmkgR2VuZXJhdGVkIENlcnRpZmljYXRlMB0G
A1UdDgQWBBS5/gDRDRKHUUs9Iz7BRSKhaVeFGzAfBgNVHSMEGDAWgBRd8pv5PmLP
T3xjOrHUvQGJ8V8cIjANBgkqhkiG9w0BAQUFAAOCAQEABXG9yGX32LUelH4kMo4N
puLs+bnaX9Ru2qslq8T8UeNJSooEstZYdWrZegEsVvEbItW6/jl7oPG8pxvken59
VPylp0lPW0kBrWrloSmYfBgHzR8JKUU1vSriu9sGEJyPI31ykBv2OVuM5kJ59gBx
t4V+p+hfHhXvVx97rS3KISkRNxxloWkiqqI8ZMS2tSMWcrHRi1Pz0H4WdkS/iGk2
Qh2B9wV1PjlyS2c7ElXhDR935DoHZVUNGaGpDKivUClsFPnuiaHq1v+ws0DrAT18
+Z4enC0MV1hIkUywpB4Fw9RrZLao/rm7oE9MRJ+j9N2/2A3sM0HEMLYnNaeWzs9X
EQ==
-----END CERTIFICATE-----
